target datalayout = "e-m:e-p270:32:32-p271:32:32-p272:64:64-i64:64-i128:128-f80:128-n8:16:32:64-S128"
target triple = "x86_64-pc-linux-gnu"

%class.CompileLog = type { %class.xmlStream, ptr, i64, i64, %class.stringStream, [100 x i8], ptr, i32, i32, ptr }
%class.xmlStream = type { %class.outputStream, ptr, i64, i32, ptr, %class.xmlTextStream }
%class.outputStream = type { ptr, i32, i8, i32, i64, %class.TimeStamp, ptr, i64 }
%class.TimeStamp = type { i64 }
%class.xmlTextStream = type { %class.outputStream, ptr }
%class.stringStream = type <{ %class.outputStream, ptr, i64, i64, i8, [48 x i8], [7 x i8] }>

@_ZN10CompileLog6_firstE = hidden global ptr null, align 8
@_ZZN10CompileLog19finish_log_on_errorEP12outputStreamPciE11called_exit = internal global i8 0, align 1
@.str.20 = private unnamed_addr constant [26 x i8] c"<compilation_log thread='\00", align 1
@.str.21 = private unnamed_addr constant [4 x i8] c"%lu\00", align 1
@.str.22 = private unnamed_addr constant [3 x i8] c"'>\00", align 1
@.str.23 = private unnamed_addr constant [11 x i8] c"<fragment>\00", align 1
@.str.24 = private unnamed_addr constant [10 x i8] c"<![CDATA[\00", align 1
@.str.25 = private unnamed_addr constant [13 x i8] c"]]><![CDATA[\00", align 1
@.str.26 = private unnamed_addr constant [4 x i8] c"]]>\00", align 1
@.str.27 = private unnamed_addr constant [12 x i8] c"</fragment>\00", align 1
@.str.28 = private unnamed_addr constant [19 x i8] c"</compilation_log>\00", align 1

; Function Attrs: mustprogress nounwind uwtable
define linkonce_odr hidden void @_ZN12outputStream12print_raw_crEPKc(ptr noundef nonnull align 8 dereferenceable(56) %0, ptr noundef %1) #1 comdat align 2 {
  %3 = alloca ptr, align 8
  %4 = alloca ptr, align 8
  store ptr %0, ptr %3, align 8
  store ptr %1, ptr %4, align 8
  %5 = load ptr, ptr %3, align 8
  %6 = load ptr, ptr %4, align 8
  call void @_ZN12outputStream9print_rawEPKc(ptr noundef nonnull align 8 dereferenceable(56) %5, ptr noundef %6)
  call void @_ZN12outputStream2crEv(ptr noundef nonnull align 8 dereferenceable(56) %5)
  ret void
}

; Function Attrs: mustprogress nounwind uwtable
define linkonce_odr hidden noundef i64 @_ZN10CompileLog9thread_idEv(ptr noundef nonnull align 8 dereferenceable(440) %0) #1 comdat align 2 {
  %2 = alloca ptr, align 8
  store ptr %0, ptr %2, align 8
  %3 = load ptr, ptr %2, align 8
  %4 = getelementptr inbounds %class.CompileLog, ptr %3, i32 0, i32 3
  %5 = load i64, ptr %4, align 8
  ret i64 %5
}

; Function Attrs: mustprogress nounwind uwtable
define linkonce_odr hidden void @_ZN12outputStream9print_rawEPKc(ptr noundef nonnull align 8 dereferenceable(56) %0, ptr noundef %1) #1 comdat align 2 {
  %3 = alloca ptr, align 8
  %4 = alloca ptr, align 8
  store ptr %0, ptr %3, align 8
  store ptr %1, ptr %4, align 8
  %5 = load ptr, ptr %3, align 8
  %6 = load ptr, ptr %4, align 8
  %7 = load ptr, ptr %4, align 8
  %8 = call i64 @strlen(ptr noundef %7) #9
  call void @_ZN12outputStream9print_rawEPKcm(ptr noundef nonnull align 8 dereferenceable(56) %5, ptr noundef %6, i64 noundef %8)
  ret void
}

; Function Attrs: mustprogress nounwind uwtable
define linkonce_odr hidden noundef ptr @_ZN10CompileLog4fileEv(ptr noundef nonnull align 8 dereferenceable(440) %0) #1 comdat align 2 {
  %2 = alloca ptr, align 8
  store ptr %0, ptr %2, align 8
  %3 = load ptr, ptr %2, align 8
  %4 = getelementptr inbounds %class.CompileLog, ptr %3, i32 0, i32 1
  %5 = load ptr, ptr %4, align 8
  ret ptr %5
}

; Function Attrs: mustprogress nounwind uwtable
define hidden void @_ZN10CompileLog19finish_log_on_errorEP12outputStreamPci(ptr noundef %0, ptr noundef %1, i32 noundef %2) #1 align 2 {
  %4 = alloca ptr, align 8
  %5 = alloca ptr, align 8
  %6 = alloca i32, align 4
  %7 = alloca ptr, align 8
  %8 = alloca ptr, align 8
  %9 = alloca i32, align 4
  %10 = alloca i64, align 8
  %11 = alloca i64, align 8
  %12 = alloca i64, align 8
  %13 = alloca i8, align 1
  %14 = alloca i32, align 4
  %15 = alloca ptr, align 8
  %16 = alloca i64, align 8
  %17 = alloca ptr, align 8
  store ptr %0, ptr %4, align 8
  store ptr %1, ptr %5, align 8
  store i32 %2, ptr %6, align 4
  %18 = load i8, ptr @_ZZN10CompileLog19finish_log_on_errorEP12outputStreamPciE11called_exit, align 1
  %19 = trunc i8 %18 to i1
  br i1 %19, label %20, label %21

20:                                               ; preds = %3
  br label %183

21:                                               ; preds = %3
  store i8 1, ptr @_ZZN10CompileLog19finish_log_on_errorEP12outputStreamPciE11called_exit, align 1
  %22 = load ptr, ptr @_ZN10CompileLog6_firstE, align 8
  store ptr %22, ptr %7, align 8
  br label %23

23:                                               ; preds = %180, %21
  %24 = load ptr, ptr %7, align 8
  %25 = icmp ne ptr %24, null
  br i1 %25, label %26, label %182

26:                                               ; preds = %23
  %27 = load ptr, ptr %7, align 8
  %28 = load ptr, ptr %27, align 8
  %29 = getelementptr inbounds ptr, ptr %28, i64 0
  %30 = load ptr, ptr %29, align 8
  call void %30(ptr noundef nonnull align 8 dereferenceable(152) %27)
  %31 = load ptr, ptr %7, align 8
  %32 = call noundef ptr @_ZN10CompileLog4fileEv(ptr noundef nonnull align 8 dereferenceable(440) %31)
  store ptr %32, ptr %8, align 8
  %33 = load ptr, ptr %8, align 8
  %34 = call i32 (ptr, i32, ...) @open64(ptr noundef %33, i32 noundef 0)
  store i32 %34, ptr %9, align 4
  %35 = load i32, ptr %9, align 4
  %36 = icmp ne i32 %35, -1
  br i1 %36, label %37, label %170

37:                                               ; preds = %26
  %38 = load ptr, ptr %4, align 8
  call void @_ZN12outputStream9print_rawEPKc(ptr noundef nonnull align 8 dereferenceable(56) %38, ptr noundef @.str.20)
  %39 = load ptr, ptr %5, align 8
  %40 = load i32, ptr %6, align 4
  %41 = sext i32 %40 to i64
  %42 = load ptr, ptr %7, align 8
  %43 = call noundef i64 @_ZN10CompileLog9thread_idEv(ptr noundef nonnull align 8 dereferenceable(440) %42)
  %44 = call i32 (ptr, i64, ptr, ...) @jio_snprintf(ptr noundef %39, i64 noundef %41, ptr noundef @.str.21, i64 noundef %43)
  %45 = load ptr, ptr %4, align 8
  %46 = load ptr, ptr %5, align 8
  call void @_ZN12outputStream9print_rawEPKc(ptr noundef nonnull align 8 dereferenceable(56) %45, ptr noundef %46)
  %47 = load ptr, ptr %4, align 8
  call void @_ZN12outputStream12print_raw_crEPKc(ptr noundef nonnull align 8 dereferenceable(56) %47, ptr noundef @.str.22)
  %48 = load ptr, ptr %7, align 8
  %49 = getelementptr inbounds %class.CompileLog, ptr %48, i32 0, i32 2
  %50 = load i64, ptr %49, align 8
  store i64 %50, ptr %12, align 8
  br label %51

51:                                               ; preds = %74, %37
  %52 = load i64, ptr %12, align 8
  %53 = icmp ugt i64 %52, 0
  br i1 %53, label %54, label %85

54:                                               ; preds = %51
  %55 = load i64, ptr %12, align 8
  %56 = load i32, ptr %6, align 4
  %57 = sext i32 %56 to i64
  %58 = icmp ult i64 %55, %57
  br i1 %58, label %59, label %61

59:                                               ; preds = %54
  %60 = load i64, ptr %12, align 8
  store i64 %60, ptr %10, align 8
  br label %64

61:                                               ; preds = %54
  %62 = load i32, ptr %6, align 4
  %63 = sext i32 %62 to i64
  store i64 %63, ptr %10, align 8
  br label %64

64:                                               ; preds = %61, %59
  %65 = load i32, ptr %9, align 4
  %66 = load ptr, ptr %5, align 8
  %67 = load i64, ptr %10, align 8
  %68 = trunc i64 %67 to i32
  %69 = sext i32 %68 to i64
  %70 = call i64 @read(i32 noundef %65, ptr noundef %66, i64 noundef %69)
  store i64 %70, ptr %11, align 8
  %71 = load i64, ptr %11, align 8
  %72 = icmp sle i64 %71, 0
  br i1 %72, label %73, label %74

73:                                               ; preds = %64
  br label %85

74:                                               ; preds = %64
  %75 = load i64, ptr %11, align 8
  store i64 %75, ptr %10, align 8
  %76 = load i64, ptr %10, align 8
  %77 = load i64, ptr %12, align 8
  %78 = sub i64 %77, %76
  store i64 %78, ptr %12, align 8
  %79 = load ptr, ptr %4, align 8
  %80 = load ptr, ptr %5, align 8
  %81 = load i64, ptr %10, align 8
  %82 = load ptr, ptr %79, align 8
  %83 = getelementptr inbounds ptr, ptr %82, i64 1
  %84 = load ptr, ptr %83, align 8
  call void %84(ptr noundef nonnull align 8 dereferenceable(56) %79, ptr noundef %80, i64 noundef %81)
  br label %51, !llvm.loop !10

85:                                               ; preds = %73, %51
  store i8 0, ptr %13, align 1
  store i32 0, ptr %14, align 4
  br label %86

86:                                               ; preds = %159, %85
  %87 = load i32, ptr %9, align 4
  %88 = load ptr, ptr %5, align 8
  %89 = load i32, ptr %6, align 4
  %90 = sub nsw i32 %89, 1
  %91 = sext i32 %90 to i64
  %92 = call i64 @read(i32 noundef %87, ptr noundef %88, i64 noundef %91)
  store i64 %92, ptr %11, align 8
  %93 = icmp sgt i64 %92, 0
  br i1 %93, label %94, label %160

94:                                               ; preds = %86
  %95 = load i64, ptr %11, align 8
  store i64 %95, ptr %10, align 8
  %96 = load ptr, ptr %5, align 8
  %97 = load i32, ptr %6, align 4
  %98 = sub nsw i32 %97, 1
  %99 = sext i32 %98 to i64
  %100 = getelementptr inbounds i8, ptr %96, i64 %99
  store i8 0, ptr %100, align 1
  %101 = load i8, ptr %13, align 1
  %102 = trunc i8 %101 to i1
  br i1 %102, label %106, label %103

103:                                              ; preds = %94
  %104 = load ptr, ptr %4, align 8
  call void @_ZN12outputStream12print_raw_crEPKc(ptr noundef nonnull align 8 dereferenceable(56) %104, ptr noundef @.str.23)
  %105 = load ptr, ptr %4, align 8
  call void @_ZN12outputStream12print_raw_crEPKc(ptr noundef nonnull align 8 dereferenceable(56) %105, ptr noundef @.str.24)
  store i8 1, ptr %13, align 1
  br label %106

106:                                              ; preds = %103, %94
  %107 = load ptr, ptr %5, align 8
  store ptr %107, ptr %15, align 8
  br label %108

108:                                              ; preds = %152, %106
  %109 = load i64, ptr %10, align 8
  %110 = icmp ugt i64 %109, 0
  br i1 %110, label %111, label %159

111:                                              ; preds = %108
  store i64 0, ptr %16, align 8
  br label %112

112:                                              ; preds = %136, %111
  %113 = load i64, ptr %16, align 8
  %114 = load i64, ptr %10, align 8
  %115 = icmp ult i64 %113, %114
  br i1 %115, label %116, label %139

116:                                              ; preds = %112
  %117 = load ptr, ptr %15, align 8
  %118 = load i64, ptr %16, align 8
  %119 = getelementptr inbounds i8, ptr %117, i64 %118
  %120 = load i8, ptr %119, align 1
  %121 = sext i8 %120 to i32
  switch i32 %121, label %134 [
    i32 93, label %122
    i32 62, label %129
  ]

122:                                              ; preds = %116
  %123 = load i32, ptr %14, align 4
  %124 = icmp slt i32 %123, 2
  br i1 %124, label %125, label %128

125:                                              ; preds = %122
  %126 = load i32, ptr %14, align 4
  %127 = add nsw i32 %126, 1
  store i32 %127, ptr %14, align 4
  br label %128

128:                                              ; preds = %125, %122
  br label %136

129:                                              ; preds = %116
  %130 = load i32, ptr %14, align 4
  %131 = icmp eq i32 %130, 2
  br i1 %131, label %132, label %133

132:                                              ; preds = %129
  br label %135

133:                                              ; preds = %129
  br label %134

134:                                              ; preds = %133, %116
  store i32 0, ptr %14, align 4
  br label %136

135:                                              ; preds = %132
  br label %139

136:                                              ; preds = %134, %128
  %137 = load i64, ptr %16, align 8
  %138 = add i64 %137, 1
  store i64 %138, ptr %16, align 8
  br label %112, !llvm.loop !11

139:                                              ; preds = %135, %112
  %140 = load ptr, ptr %4, align 8
  %141 = load ptr, ptr %15, align 8
  %142 = load i64, ptr %16, align 8
  %143 = load ptr, ptr %140, align 8
  %144 = getelementptr inbounds ptr, ptr %143, i64 1
  %145 = load ptr, ptr %144, align 8
  call void %145(ptr noundef nonnull align 8 dereferenceable(56) %140, ptr noundef %141, i64 noundef %142)
  %146 = load i64, ptr %16, align 8
  %147 = load i64, ptr %10, align 8
  %148 = icmp ult i64 %146, %147
  br i1 %148, label %149, label %151

149:                                              ; preds = %139
  %150 = load ptr, ptr %4, align 8
  call void @_ZN12outputStream9print_rawEPKc(ptr noundef nonnull align 8 dereferenceable(56) %150, ptr noundef @.str.25)
  store i32 0, ptr %14, align 4
  br label %151

151:                                              ; preds = %149, %139
  br label %152

152:                                              ; preds = %151
  %153 = load i64, ptr %16, align 8
  %154 = load i64, ptr %10, align 8
  %155 = sub i64 %154, %153
  store i64 %155, ptr %10, align 8
  %156 = load i64, ptr %16, align 8
  %157 = load ptr, ptr %15, align 8
  %158 = getelementptr inbounds i8, ptr %157, i64 %156
  store ptr %158, ptr %15, align 8
  br label %108, !llvm.loop !12

159:                                              ; preds = %108
  br label %86, !llvm.loop !13

160:                                              ; preds = %86
  %161 = load i8, ptr %13, align 1
  %162 = trunc i8 %161 to i1
  br i1 %162, label %163, label %166

163:                                              ; preds = %160
  %164 = load ptr, ptr %4, align 8
  call void @_ZN12outputStream12print_raw_crEPKc(ptr noundef nonnull align 8 dereferenceable(56) %164, ptr noundef @.str.26)
  %165 = load ptr, ptr %4, align 8
  call void @_ZN12outputStream12print_raw_crEPKc(ptr noundef nonnull align 8 dereferenceable(56) %165, ptr noundef @.str.27)
  br label %166

166:                                              ; preds = %163, %160
  %167 = load ptr, ptr %4, align 8
  call void @_ZN12outputStream12print_raw_crEPKc(ptr noundef nonnull align 8 dereferenceable(56) %167, ptr noundef @.str.28)
  %168 = load i32, ptr %9, align 4
  %169 = call i32 @close(i32 noundef %168)
  br label %170

170:                                              ; preds = %166, %26
  %171 = load ptr, ptr %7, align 8
  %172 = getelementptr inbounds %class.CompileLog, ptr %171, i32 0, i32 9
  %173 = load ptr, ptr %172, align 8
  store ptr %173, ptr %17, align 8
  %174 = load ptr, ptr %7, align 8
  %175 = icmp eq ptr %174, null
  br i1 %175, label %180, label %176

176:                                              ; preds = %170
  %177 = load ptr, ptr %174, align 8
  %178 = getelementptr inbounds ptr, ptr %177, i64 4
  %179 = load ptr, ptr %178, align 8
  call void %179(ptr noundef nonnull align 8 dereferenceable(440) %174) #8
  br label %180

180:                                              ; preds = %176, %170
  %181 = load ptr, ptr %17, align 8
  store ptr %181, ptr %7, align 8
  br label %23, !llvm.loop !14

182:                                              ; preds = %23
  store ptr null, ptr @_ZN10CompileLog6_firstE, align 8
  br label %183

183:                                              ; preds = %182, %20
  ret void
}