; Function Attrs: mustprogress nounwind uwtable
define hidden void @_ZN10CompileLog19finish_log_on_errorEP12outputStreamPci(ptr noundef %0, ptr noundef %1, i32 noundef %2) local_unnamed_addr #0 align 2 {
  %.b76 = load i1, ptr @_ZZN10CompileLog19finish_log_on_errorEP12outputStreamPciE11called_exit, align 1
  br i1 %.b76, label %68, label %4

4:                                                ; preds = %3
  store i1 true, ptr @_ZZN10CompileLog19finish_log_on_errorEP12outputStreamPciE11called_exit, align 1
  %5 = load ptr, ptr @_ZN10CompileLog6_firstE, align 8
  %.not96 = icmp eq ptr %5, null
  br i1 %.not96, label %._crit_edge100, label %.lr.ph99

.lr.ph99:                                         ; preds = %4
  %6 = sext i32 %2 to i64
  %7 = add nsw i32 %2, -1
  %8 = sext i32 %7 to i64
  %9 = getelementptr inbounds i8, ptr %1, i64 %8
  br label %10

10:                                               ; preds = %.lr.ph99, %62
  %.097 = phi ptr [ %5, %.lr.ph99 ], [ %64, %62 ]
  %11 = load ptr, ptr %.097, align 8
  %12 = load ptr, ptr %11, align 8
  tail call void %12(ptr noundef nonnull align 8 dereferenceable(152) %.097) #11
  %13 = getelementptr inbounds i8, ptr %.097, i64 152
  %14 = load ptr, ptr %13, align 8
  %15 = tail call i32 (ptr, i32, ...) @open64(ptr noundef %14, i32 noundef 0) #11
  %.not77 = icmp eq i32 %15, -1
  br i1 %.not77, label %62, label %16

16:                                               ; preds = %10
  tail call void @_ZN12outputStream9print_rawEPKcm(ptr noundef nonnull align 8 dereferenceable(56) %0, ptr noundef nonnull @.str.20, i64 noundef 25) #11
  %17 = getelementptr inbounds i8, ptr %.097, i64 168
  %18 = load i64, ptr %17, align 8
  %19 = tail call i32 (ptr, i64, ptr, ...) @jio_snprintf(ptr noundef %1, i64 noundef %6, ptr noundef nonnull @.str.21, i64 noundef %18) #11
  %20 = tail call i64 @strlen(ptr noundef nonnull dereferenceable(1) %1) #12
  tail call void @_ZN12outputStream9print_rawEPKcm(ptr noundef nonnull align 8 dereferenceable(56) %0, ptr noundef %1, i64 noundef %20) #11
  tail call void @_ZN12outputStream9print_rawEPKcm(ptr noundef nonnull align 8 dereferenceable(56) %0, ptr noundef nonnull @.str.22, i64 noundef 2) #11
  tail call void @_ZN12outputStream2crEv(ptr noundef nonnull align 8 dereferenceable(56) %0) #11
  %21 = getelementptr inbounds i8, ptr %.097, i64 160
  %22 = load i64, ptr %21, align 8
  %.not7883 = icmp eq i64 %22, 0
  br i1 %.not7883, label %._crit_edge, label %.lr.ph

.lr.ph:                                           ; preds = %16, %26
  %.06984 = phi i64 [ %27, %26 ], [ %22, %16 ]
  %.069. = tail call i64 @llvm.umin.i64(i64 %.06984, i64 %6)
  %sext = shl i64 %.069., 32
  %23 = ashr exact i64 %sext, 32
  %24 = tail call i64 @read(i32 noundef %15, ptr noundef %1, i64 noundef %23) #11
  %25 = icmp slt i64 %24, 1
  br i1 %25, label %._crit_edge, label %26

26:                                               ; preds = %.lr.ph
  %27 = sub i64 %.06984, %24
  %28 = load ptr, ptr %0, align 8
  %29 = getelementptr inbounds i8, ptr %28, i64 8
  %30 = load ptr, ptr %29, align 8
  tail call void %30(ptr noundef nonnull align 8 dereferenceable(56) %0, ptr noundef %1, i64 noundef %24) #11
  %.not78 = icmp eq i64 %27, 0
  br i1 %.not78, label %._crit_edge, label %.lr.ph, !llvm.loop !10

._crit_edge:                                      ; preds = %26, %.lr.ph, %16
  %31 = tail call i64 @read(i32 noundef %15, ptr noundef %1, i64 noundef %8) #11
  %32 = icmp sgt i64 %31, 0
  br i1 %32, label %.lr.ph94, label %._crit_edge95.thread

.loopexit:                                        ; preds = %56
  %33 = tail call i64 @read(i32 noundef %15, ptr noundef %1, i64 noundef %8) #11
  %34 = icmp sgt i64 %33, 0
  br i1 %34, label %.lr.ph94, label %._crit_edge95, !llvm.loop !11

.lr.ph94:                                         ; preds = %._crit_edge, %.loopexit
  %35 = phi i64 [ %33, %.loopexit ], [ %31, %._crit_edge ]
  %.06692 = phi i32 [ %.4, %.loopexit ], [ 0, %._crit_edge ]
  %.06791 = phi i8 [ %.168, %.loopexit ], [ 0, %._crit_edge ]
  store i8 0, ptr %9, align 1
  %36 = trunc nuw i8 %.06791 to i1
  br i1 %36, label %38, label %37

37:                                               ; preds = %.lr.ph94
  tail call void @_ZN12outputStream9print_rawEPKcm(ptr noundef nonnull align 8 dereferenceable(56) %0, ptr noundef nonnull @.str.23, i64 noundef 10) #11
  tail call void @_ZN12outputStream2crEv(ptr noundef nonnull align 8 dereferenceable(56) %0) #11
  tail call void @_ZN12outputStream9print_rawEPKcm(ptr noundef nonnull align 8 dereferenceable(56) %0, ptr noundef nonnull @.str.24, i64 noundef 9) #11
  tail call void @_ZN12outputStream2crEv(ptr noundef nonnull align 8 dereferenceable(56) %0) #11
  br label %38

38:                                               ; preds = %37, %.lr.ph94
  %.168 = phi i8 [ %.06791, %.lr.ph94 ], [ 1, %37 ]
  br label %.preheader

.preheader:                                       ; preds = %38, %56
  %.06590 = phi ptr [ %1, %38 ], [ %58, %56 ]
  %.189 = phi i32 [ %.06692, %38 ], [ %.4, %56 ]
  %.17188 = phi i64 [ %35, %38 ], [ %57, %56 ]
  br label %39

39:                                               ; preds = %.preheader, %47
  %.06487 = phi i64 [ 0, %.preheader ], [ %48, %47 ]
  %.286 = phi i32 [ %.189, %.preheader ], [ %.3, %47 ]
  %40 = getelementptr inbounds i8, ptr %.06590, i64 %.06487
  %41 = load i8, ptr %40, align 1
  switch i8 %41, label %47 [
    i8 93, label %42
    i8 62, label %45
  ]

42:                                               ; preds = %39
  %43 = icmp slt i32 %.286, 2
  %44 = add nuw nsw i32 %.286, 1
  %spec.select = select i1 %43, i32 %44, i32 2
  br label %47

45:                                               ; preds = %39
  %46 = icmp eq i32 %.286, 2
  br i1 %46, label %49, label %47

47:                                               ; preds = %42, %39, %45
  %.3 = phi i32 [ %spec.select, %42 ], [ 0, %45 ], [ 0, %39 ]
  %48 = add nuw i64 %.06487, 1
  %exitcond.not = icmp eq i64 %48, %.17188
  br i1 %exitcond.not, label %.critedge, label %39, !llvm.loop !12

49:                                               ; preds = %45
  %50 = load ptr, ptr %0, align 8
  %51 = getelementptr inbounds i8, ptr %50, i64 8
  %52 = load ptr, ptr %51, align 8
  tail call void %52(ptr noundef nonnull align 8 dereferenceable(56) %0, ptr noundef nonnull %.06590, i64 noundef %.06487) #11
  tail call void @_ZN12outputStream9print_rawEPKcm(ptr noundef nonnull align 8 dereferenceable(56) %0, ptr noundef nonnull @.str.25, i64 noundef 12) #11
  br label %56

.critedge:                                        ; preds = %47
  %53 = load ptr, ptr %0, align 8
  %54 = getelementptr inbounds i8, ptr %53, i64 8
  %55 = load ptr, ptr %54, align 8
  tail call void %55(ptr noundef nonnull align 8 dereferenceable(56) %0, ptr noundef nonnull %.06590, i64 noundef %.17188) #11
  br label %56

56:                                               ; preds = %.critedge, %49
  %.06481 = phi i64 [ %.06487, %49 ], [ %.17188, %.critedge ]
  %.4 = phi i32 [ 0, %49 ], [ %.3, %.critedge ]
  %57 = sub i64 %.17188, %.06481
  %58 = getelementptr inbounds i8, ptr %.06590, i64 %.06481
  %.not79 = icmp eq i64 %57, 0
  br i1 %.not79, label %.loopexit, label %.preheader, !llvm.loop !13

._crit_edge95:                                    ; preds = %.loopexit
  %59 = trunc nuw i8 %.168 to i1
  br i1 %59, label %60, label %._crit_edge95.thread

60:                                               ; preds = %._crit_edge95
  tail call void @_ZN12outputStream9print_rawEPKcm(ptr noundef nonnull align 8 dereferenceable(56) %0, ptr noundef nonnull @.str.26, i64 noundef 3) #11
  tail call void @_ZN12outputStream2crEv(ptr noundef nonnull align 8 dereferenceable(56) %0) #11
  tail call void @_ZN12outputStream9print_rawEPKcm(ptr noundef nonnull align 8 dereferenceable(56) %0, ptr noundef nonnull @.str.27, i64 noundef 11) #11
  tail call void @_ZN12outputStream2crEv(ptr noundef nonnull align 8 dereferenceable(56) %0) #11
  br label %._crit_edge95.thread

._crit_edge95.thread:                             ; preds = %._crit_edge, %60, %._crit_edge95
  tail call void @_ZN12outputStream9print_rawEPKcm(ptr noundef nonnull align 8 dereferenceable(56) %0, ptr noundef nonnull @.str.28, i64 noundef 18) #11
  tail call void @_ZN12outputStream2crEv(ptr noundef nonnull align 8 dereferenceable(56) %0) #11
  %61 = tail call i32 @close(i32 noundef %15) #11
  br label %62

62:                                               ; preds = %._crit_edge95.thread, %10
  %63 = getelementptr inbounds i8, ptr %.097, i64 432
  %64 = load ptr, ptr %63, align 8
  %65 = load ptr, ptr %.097, align 8
  %66 = getelementptr inbounds i8, ptr %65, i64 32
  %67 = load ptr, ptr %66, align 8
  tail call void %67(ptr noundef nonnull align 8 dereferenceable(440) %.097) #11
  %.not = icmp eq ptr %64, null
  br i1 %.not, label %._crit_edge100, label %10, !llvm.loop !14

._crit_edge100:                                   ; preds = %62, %4
  store ptr null, ptr @_ZN10CompileLog6_firstE, align 8
  br label %68

68:                                               ; preds = %3, %._crit_edge100
  ret void
}